; Function Attrs: mustprogress uwtable
define noundef signext i8 @_ZN6icu_759LocaleKey8fallbackEv(ptr noundef nonnull align 8 dereferenceable(272) %this) unnamed_addr #1 align 2 {
entry:
  %_currentID = getelementptr inbounds i8, ptr %this, i64 208
  %fUnion.i = getelementptr inbounds i8, ptr %this, i64 216
  %0 = load i16, ptr %fUnion.i, align 8
  %conv2.i11 = and i16 %0, 1
  %tobool.not = icmp eq i16 %conv2.i11, 0
  br i1 %tobool.not, label %if.then, label %return

if.then:                                          ; preds = %entry
  %cmp.i.i.i = icmp slt i16 %0, 0
  %1 = ashr i16 %0, 5
  %shr.i.i.i = sext i16 %1 to i32
  %fLength.i.i = getelementptr inbounds i8, ptr %this, i64 220
  %2 = load i32, ptr %fLength.i.i, align 4
  %cond.i.i = select i1 %cmp.i.i.i, i32 %2, i32 %shr.i.i.i
  %call2.i = tail call noundef i32 @_ZNK6icu_7513UnicodeString13doLastIndexOfEDsii(ptr noundef nonnull align 8 dereferenceable(64) %_currentID, i16 noundef zeroext 95, i32 noundef 0, i32 noundef %cond.i.i)
  %cmp.not = icmp eq i32 %call2.i, -1
  br i1 %cmp.not, label %if.end, label %if.then4

if.then4:                                         ; preds = %if.then
  %cmp.i = icmp slt i32 %call2.i, 1
  br i1 %cmp.i, label %if.then.i, label %if.end.i

if.then.i:                                        ; preds = %if.then4
  %3 = load i16, ptr %fUnion.i, align 8
  %conv2.i3.i.i = and i16 %3, 1
  %tobool.not.i.i = icmp eq i16 %conv2.i3.i.i, 0
  %4 = and i16 %3, 30
  %storemerge.i.i = select i1 %tobool.not.i.i, i16 %4, i16 2
  store i16 %storemerge.i.i, ptr %fUnion.i, align 8
  br label %return

if.end.i:                                         ; preds = %if.then4
  %call3.i = tail call noundef nonnull align 8 dereferenceable(64) ptr @_ZN6icu_7513UnicodeString9doReplaceEiiPKDsii(ptr noundef nonnull align 8 dereferenceable(64) %_currentID, i32 noundef %call2.i, i32 noundef 2147483647, ptr noundef null, i32 noundef 0, i32 noundef 0)
  br label %return

if.end:                                           ; preds = %if.then
  %fUnion.i3 = getelementptr inbounds i8, ptr %this, i64 152
  %5 = load i16, ptr %fUnion.i3, align 8
  %conv2.i412 = and i16 %5, 1
  %tobool8.not = icmp eq i16 %conv2.i412, 0
  br i1 %tobool8.not, label %if.then9, label %if.end14

if.then9:                                         ; preds = %if.end
  %_fallbackID = getelementptr inbounds i8, ptr %this, i64 144
  %call12 = tail call noundef nonnull align 8 dereferenceable(64) ptr @_ZN6icu_7513UnicodeStringaSERKS0_(ptr noundef nonnull align 8 dereferenceable(64) %_currentID, ptr noundef nonnull align 8 dereferenceable(64) %_fallbackID)
  tail call void @_ZN6icu_7513UnicodeString10setToBogusEv(ptr noundef nonnull align 8 dereferenceable(64) %_fallbackID)
  br label %return

if.end14:                                         ; preds = %if.end
  %6 = load i16, ptr %fUnion.i, align 8
  %cmp.i.i = icmp slt i16 %6, 0
  %7 = ashr i16 %6, 5
  %shr.i.i = sext i16 %7 to i32
  %8 = load i32, ptr %fLength.i.i, align 4
  %cond.i = select i1 %cmp.i.i, i32 %8, i32 %shr.i.i
  %cmp17 = icmp sgt i32 %cond.i, 0
  br i1 %cmp17, label %if.then18, label %if.end21

if.then18:                                        ; preds = %if.end14
  %conv2.i3.i.i7 = and i16 %6, 1
  %tobool.not.i.i8 = icmp eq i16 %conv2.i3.i.i7, 0
  %9 = and i16 %6, 30
  %storemerge.i.i9 = select i1 %tobool.not.i.i8, i16 %9, i16 2
  store i16 %storemerge.i.i9, ptr %fUnion.i, align 8
  br label %return

if.end21:                                         ; preds = %if.end14
  tail call void @_ZN6icu_7513UnicodeString10setToBogusEv(ptr noundef nonnull align 8 dereferenceable(64) %_currentID)
  br label %return

return:                                           ; preds = %if.end.i, %if.then.i, %entry, %if.end21, %if.then18, %if.then9
  %retval.0 = phi i8 [ 1, %if.then18 ], [ 1, %if.then9 ], [ 0, %if.end21 ], [ 0, %entry ], [ 1, %if.then.i ], [ 1, %if.end.i ]
  ret i8 %retval.0
}